; Function Attrs: mustprogress nounwind uwtable
define dso_local void @_ZN4llvm17ScheduleDAGMILive10initQueuesENS_8ArrayRefIPNS_5SUnitEEES4_(ptr noundef nonnull align 8 dereferenceable(5184) initializes((2688, 2704)) %0, ptr %1, i64 %2, ptr %3, i64 %4) local_unnamed_addr #0 align 2 {
  tail call void @_ZN4llvm13ScheduleDAGMI10initQueuesENS_8ArrayRefIPNS_5SUnitEEES4_(ptr noundef nonnull align 8 dereferenceable(2704) %0, ptr %1, i64 %2, ptr %3, i64 %4)
  %6 = getelementptr inbounds nuw i8, ptr %0, i64 3112
  %7 = load i8, ptr %6, align 8
  %8 = trunc i8 %7 to i1
  br i1 %8, label %9, label %12

9:                                                ; preds = %5
  %10 = getelementptr inbounds nuw i8, ptr %0, i64 2672
  %.sroa.0.0.copyload.i.i = load ptr, ptr %10, align 8
  %11 = getelementptr inbounds nuw i8, ptr %0, i64 4216
  store ptr %.sroa.0.0.copyload.i.i, ptr %11, align 8
  br label %12

12:                                               ; preds = %9, %5
  ret void
}